target datalayout = "e-m:e-p270:32:32-p271:32:32-p272:64:64-i64:64-i128:128-f80:128-n8:16:32:64-S128"
target triple = "x86_64-pc-linux-gnu"

%struct.Vmem = type { ptr, i64, i64 }
%struct.ParseContext_ = type { %struct.TokenData, i32, %union.SourceSpan, %union.SourceSpan, ptr, %struct.Lexer }
%struct.TokenData = type { ptr, i64, %union.anon.86 }
%union.anon.86 = type { %struct.anon.89 }
%struct.anon.89 = type { %struct.Int128_, i8 }
%struct.Int128_ = type { i64, i64 }
%union.SourceSpan = type { i64 }
%struct.Lexer = type { ptr, ptr, ptr, ptr, i32, i32, ptr, ptr, ptr, %struct.TokenData, %union.SourceSpan, i32, i32 }
%struct.Ast_ = type { %union.SourceSpan, i32, i8, %union.anon.62 }
%union.anon.62 = type { %struct.AstDocDirective_ }
%struct.AstDocDirective_ = type { i8, %union.anon.65 }
%union.anon.65 = type { %struct.anon.66 }
%struct.anon.66 = type { ptr, %union.SourceSpan, i8 }
%struct.Decl_ = type { ptr, ptr, %union.SourceSpan, i64, %union.anon, i32, %union.anon.1, i64, ptr, ptr, ptr, %union.anon.2 }
%union.anon = type { ptr }
%union.anon.1 = type { i16 }
%union.anon.2 = type { %struct.FuncDecl }
%struct.FuncDecl = type { i32, [4 x i8], %struct.Signature_, i32, i32, %union.anon.9 }
%struct.Signature_ = type <{ %struct.CalleeAttributes, i16, i8, i32, i32, [4 x i8], ptr }>
%struct.CalleeAttributes = type { i8 }
%union.anon.9 = type { %struct.anon.10 }
%struct.anon.10 = type { i16, %union.anon.11 }
%union.anon.11 = type { ptr }
%struct.anon.0 = type { i16, i8, i8, i32 }

@poisoned_ast = external global ptr, align 8
@.str.11 = private unnamed_addr constant [13 x i8] c"Expected ';'\00", align 1
@ast_arena = external global %struct.Vmem, align 8

; Function Attrs: nounwind uwtable
define internal i64 @extend_span_with_token(i64 %0, i64 %1) #0 {
  %3 = alloca %union.SourceSpan, align 8
  %4 = alloca %union.SourceSpan, align 8
  %5 = alloca %union.SourceSpan, align 8
  %6 = getelementptr inbounds %union.SourceSpan, ptr %4, i32 0, i32 0
  store i64 %0, ptr %6, align 8
  %7 = getelementptr inbounds %union.SourceSpan, ptr %5, i32 0, i32 0
  store i64 %1, ptr %7, align 8
  %8 = getelementptr inbounds %struct.anon.0, ptr %4, i32 0, i32 3
  %9 = load i32, ptr %8, align 4
  %10 = getelementptr inbounds %struct.anon.0, ptr %5, i32 0, i32 3
  %11 = load i32, ptr %10, align 4
  %12 = icmp ne i32 %9, %11
  br i1 %12, label %13, label %14

13:                                               ; preds = %2
  call void @llvm.memcpy.p0.p0.i64(ptr align 8 %3, ptr align 8 %4, i64 8, i1 false)
  br label %28

14:                                               ; preds = %2
  %15 = getelementptr inbounds %struct.anon.0, ptr %5, i32 0, i32 2
  %16 = load i8, ptr %15, align 1
  %17 = zext i8 %16 to i32
  %18 = getelementptr inbounds %struct.anon.0, ptr %5, i32 0, i32 1
  %19 = load i8, ptr %18, align 2
  %20 = zext i8 %19 to i32
  %21 = add nsw i32 %17, %20
  %22 = getelementptr inbounds %struct.anon.0, ptr %4, i32 0, i32 2
  %23 = load i8, ptr %22, align 1
  %24 = zext i8 %23 to i32
  %25 = sub nsw i32 %21, %24
  %26 = trunc i32 %25 to i8
  %27 = getelementptr inbounds %struct.anon.0, ptr %4, i32 0, i32 1
  store i8 %26, ptr %27, align 2
  call void @llvm.memcpy.p0.p0.i64(ptr align 8 %3, ptr align 8 %4, i64 8, i1 false)
  br label %28

28:                                               ; preds = %14, %13
  %29 = getelementptr inbounds %union.SourceSpan, ptr %3, i32 0, i32 0
  %30 = load i64, ptr %29, align 8
  ret i64 %30
}

; Function Attrs: nounwind uwtable
define internal ptr @ast_calloc() #0 {
  %1 = call ptr @vmem_alloc(ptr noundef @ast_arena, i64 noundef 48)
  ret ptr %1
}

; Function Attrs: nounwind uwtable
define internal ptr @parse_var_stmt(ptr noundef %0) #0 {
  %2 = alloca ptr, align 8
  %3 = alloca ptr, align 8
  %4 = alloca i32, align 4
  %5 = alloca %union.SourceSpan, align 8
  %6 = alloca i32, align 4
  %7 = alloca ptr, align 8
  %8 = alloca ptr, align 8
  %9 = alloca ptr, align 8
  %10 = alloca ptr, align 8
  %11 = alloca ptr, align 8
  %12 = alloca %union.SourceSpan, align 8
  store ptr %0, ptr %9, align 8
  %13 = load ptr, ptr %9, align 8
  %14 = getelementptr inbounds %struct.ParseContext_, ptr %13, i32 0, i32 2
  %15 = getelementptr inbounds %union.SourceSpan, ptr %14, i32 0, i32 0
  %16 = load i64, ptr %15, align 8
  store i64 %16, ptr %5, align 8
  store i32 15, ptr %6, align 4
  %17 = call ptr @ast_calloc()
  store ptr %17, ptr %7, align 8
  %18 = load ptr, ptr %7, align 8
  call void @llvm.memcpy.p0.p0.i64(ptr align 8 %18, ptr align 8 %5, i64 8, i1 false)
  %19 = load i32, ptr %6, align 4
  %20 = load ptr, ptr %7, align 8
  %21 = getelementptr inbounds %struct.Ast_, ptr %20, i32 0, i32 2
  %22 = trunc i32 %19 to i8
  store i8 %22, ptr %21, align 4
  %23 = load ptr, ptr %7, align 8
  store ptr %23, ptr %10, align 8
  %24 = load ptr, ptr %9, align 8
  %25 = call ptr @parse_var_decl(ptr noundef %24)
  store ptr %25, ptr %11, align 8
  %26 = load ptr, ptr %11, align 8
  store ptr %26, ptr %2, align 8
  %27 = load ptr, ptr %2, align 8
  %28 = icmp ne ptr %27, null
  br i1 %28, label %29, label %36

29:                                               ; preds = %1
  %30 = load ptr, ptr %2, align 8
  %31 = getelementptr inbounds %struct.Decl_, ptr %30, i32 0, i32 3
  %32 = load i64, ptr %31, align 8
  %33 = and i64 %32, 127
  %34 = trunc i64 %33 to i32
  %35 = icmp ne i32 %34, 0
  br label %36

36:                                               ; preds = %29, %1
  %37 = phi i1 [ true, %1 ], [ %35, %29 ]
  br i1 %37, label %40, label %38

38:                                               ; preds = %36
  %39 = load ptr, ptr @poisoned_ast, align 8
  store ptr %39, ptr %8, align 8
  br label %75

40:                                               ; preds = %36
  %41 = load ptr, ptr %11, align 8
  %42 = load ptr, ptr %10, align 8
  %43 = getelementptr inbounds %struct.Ast_, ptr %42, i32 0, i32 3
  store ptr %41, ptr %43, align 8
  br label %44

44:                                               ; preds = %40
  %45 = load ptr, ptr %10, align 8
  %46 = getelementptr inbounds %struct.Ast_, ptr %45, i32 0, i32 0
  %47 = load ptr, ptr %10, align 8
  %48 = getelementptr inbounds %struct.Ast_, ptr %47, i32 0, i32 0
  %49 = load ptr, ptr %9, align 8
  %50 = getelementptr inbounds %struct.ParseContext_, ptr %49, i32 0, i32 3
  %51 = getelementptr inbounds %union.SourceSpan, ptr %48, i32 0, i32 0
  %52 = load i64, ptr %51, align 8
  %53 = getelementptr inbounds %union.SourceSpan, ptr %50, i32 0, i32 0
  %54 = load i64, ptr %53, align 8
  %55 = call i64 @extend_span_with_token(i64 %52, i64 %54)
  %56 = getelementptr inbounds %union.SourceSpan, ptr %12, i32 0, i32 0
  store i64 %55, ptr %56, align 8
  call void @llvm.memcpy.p0.p0.i64(ptr align 8 %46, ptr align 8 %12, i64 8, i1 false)
  br label %57

57:                                               ; preds = %44
  br label %58

58:                                               ; preds = %57
  %59 = load ptr, ptr %9, align 8
  store ptr %59, ptr %3, align 8
  store i32 9, ptr %4, align 4
  %60 = load ptr, ptr %3, align 8
  %61 = getelementptr inbounds %struct.ParseContext_, ptr %60, i32 0, i32 1
  %62 = load i32, ptr %61, align 8
  %63 = load i32, ptr %4, align 4
  %64 = icmp eq i32 %62, %63
  br i1 %64, label %71, label %65

65:                                               ; preds = %58
  %66 = load ptr, ptr %9, align 8
  %67 = getelementptr inbounds %struct.ParseContext_, ptr %66, i32 0, i32 3
  %68 = getelementptr inbounds %union.SourceSpan, ptr %67, i32 0, i32 0
  %69 = load i64, ptr %68, align 8
  call void (i64, ptr, ...) @sema_error_at_after(i64 %69, ptr noundef @.str.11)
  %70 = load ptr, ptr @poisoned_ast, align 8
  store ptr %70, ptr %8, align 8
  br label %75

71:                                               ; preds = %58
  %72 = load ptr, ptr %9, align 8
  call void @advance(ptr noundef %72)
  br label %73

73:                                               ; preds = %71
  %74 = load ptr, ptr %10, align 8
  store ptr %74, ptr %8, align 8
  br label %75

75:                                               ; preds = %73, %65, %38
  %76 = load ptr, ptr %8, align 8
  ret ptr %76
}