; Function Attrs: nounwind uwtable
define internal fastcc ptr @parse_var_stmt(ptr noundef %0) unnamed_addr #0 {
  %2 = getelementptr inbounds i8, ptr %0, i64 48
  %3 = load i64, ptr %2, align 8
  %4 = tail call ptr @vmem_alloc(ptr noundef nonnull @ast_arena, i64 noundef 48) #5
  store i64 %3, ptr %4, align 8
  %5 = getelementptr inbounds i8, ptr %4, i64 12
  store i8 15, ptr %5, align 4
  %6 = tail call ptr @parse_var_decl(ptr noundef %0) #5
  %.not = icmp eq ptr %6, null
  br i1 %.not, label %.critedge, label %7

7:                                                ; preds = %1
  %8 = getelementptr inbounds i8, ptr %6, i64 24
  %9 = load i64, ptr %8, align 8
  %10 = and i64 %9, 127
  %.not22 = icmp eq i64 %10, 0
  br i1 %.not22, label %11, label %.critedge

11:                                               ; preds = %7
  %12 = load ptr, ptr @poisoned_ast, align 8
  br label %34

.critedge:                                        ; preds = %1, %7
  %13 = getelementptr inbounds i8, ptr %4, i64 16
  store ptr %6, ptr %13, align 8
  %14 = getelementptr inbounds i8, ptr %0, i64 56
  %15 = load i64, ptr %4, align 8
  %16 = load i64, ptr %14, align 8
  %.not.unshifted.i = xor i64 %16, %15
  %.not.i = icmp ult i64 %.not.unshifted.i, 4294967296
  br i1 %.not.i, label %18, label %17

17:                                               ; preds = %.critedge
  %.sroa.33.0.extract.shift.i = lshr i64 %15, 16
  br label %extend_span_with_token.exit

18:                                               ; preds = %.critedge
  %.sroa.4.0.extract.shift.i = lshr i64 %15, 24
  %19 = trunc i64 %16 to i32
  %20 = lshr i32 %19, 24
  %21 = lshr i32 %19, 16
  %22 = trunc i64 %.sroa.4.0.extract.shift.i to i32
  %23 = sub i32 %21, %22
  %24 = add i32 %23, %20
  %25 = zext i32 %24 to i64
  br label %extend_span_with_token.exit

extend_span_with_token.exit:                      ; preds = %17, %18
  %.sroa.311.0.i = phi i64 [ %.sroa.33.0.extract.shift.i, %17 ], [ %25, %18 ]
  %.sroa.311.0.insert.ext.i = shl nuw i64 %.sroa.311.0.i, 16
  %.sroa.311.0.insert.shift.i = and i64 %.sroa.311.0.insert.ext.i, 16711680
  %26 = and i64 %15, -16711681
  %.sroa.010.0.insert.insert.i = or disjoint i64 %.sroa.311.0.insert.shift.i, %26
  store i64 %.sroa.010.0.insert.insert.i, ptr %4, align 8
  %27 = getelementptr inbounds i8, ptr %0, i64 40
  %28 = load i32, ptr %27, align 8
  %29 = icmp eq i32 %28, 9
  br i1 %29, label %33, label %30

30:                                               ; preds = %extend_span_with_token.exit
  %31 = load i64, ptr %14, align 8
  tail call void (i64, ptr, ...) @sema_error_at_after(i64 %31, ptr noundef nonnull @.str.11) #5
  %32 = load ptr, ptr @poisoned_ast, align 8
  br label %34

33:                                               ; preds = %extend_span_with_token.exit
  tail call void @advance(ptr noundef nonnull %0) #5
  br label %34

34:                                               ; preds = %33, %30, %11
  %.0 = phi ptr [ %4, %33 ], [ %32, %30 ], [ %12, %11 ]
  ret ptr %.0
}